; Function Attrs: mustprogress uwtable
define dso_local void @_ZN20cmCTestSubmitHandlerC2Ev(ptr noundef nonnull align 8 dereferenceable(480) %0) unnamed_addr #3 align 2 personality ptr @__gxx_personality_v0 {
  tail call void @_ZN21cmCTestGenericHandlerC2Ev(ptr noundef nonnull align 8 dereferenceable(284) %0)
  store ptr getelementptr inbounds ({ [8 x ptr] }, ptr @_ZTV20cmCTestSubmitHandler, i64 0, i32 0, i64 2), ptr %0, align 8
  %2 = getelementptr inbounds i8, ptr %0, i64 288
  tail call void @_ZNSt7__cxx1112basic_stringIcSt11char_traitsIcESaIcEEC1Ev(ptr noundef nonnull align 8 dereferenceable(32) %2) #20
  %3 = getelementptr inbounds i8, ptr %0, i64 328
  tail call void @_ZNSt7__cxx1112basic_stringIcSt11char_traitsIcESaIcEEC1Ev(ptr noundef nonnull align 8 dereferenceable(32) %3) #20
  %4 = getelementptr inbounds i8, ptr %0, i64 392
  store i32 0, ptr %4, align 8
  %5 = getelementptr inbounds i8, ptr %0, i64 400
  store ptr null, ptr %5, align 8
  %6 = getelementptr inbounds i8, ptr %0, i64 408
  store ptr %4, ptr %6, align 8
  %7 = getelementptr inbounds i8, ptr %0, i64 416
  store ptr %4, ptr %7, align 8
  %8 = getelementptr inbounds i8, ptr %0, i64 424
  tail call void @llvm.memset.p0.i64(ptr noundef nonnull align 8 dereferenceable(56) %8, i8 0, i64 56, i1 false)
  %9 = load ptr, ptr %0, align 8
  %10 = getelementptr inbounds i8, ptr %9, i64 24
  %11 = load ptr, ptr %10, align 8
  invoke void %11(ptr noundef nonnull align 8 dereferenceable(480) %0)
          to label %12 unwind label %13

12:                                               ; preds = %1
  ret void

13:                                               ; preds = %1
  %14 = landingpad { ptr, i32 }
          cleanup
  %15 = getelementptr inbounds i8, ptr %0, i64 456
  %16 = getelementptr inbounds i8, ptr %0, i64 432
  %17 = getelementptr inbounds i8, ptr %0, i64 384
  tail call void @_ZNSt6vectorINSt7__cxx1112basic_stringIcSt11char_traitsIcESaIcEEESaIS5_EED2Ev(ptr noundef nonnull align 8 dereferenceable(24) %15) #20
  tail call void @_ZNSt6vectorINSt7__cxx1112basic_stringIcSt11char_traitsIcESaIcEEESaIS5_EED2Ev(ptr noundef nonnull align 8 dereferenceable(24) %16) #20
  tail call void @_ZNSt3setINSt7__cxx1112basic_stringIcSt11char_traitsIcESaIcEEESt4lessIS5_ESaIS5_EED2Ev(ptr noundef nonnull align 8 dereferenceable(48) %17) #20
  tail call void @_ZNSt7__cxx1112basic_stringIcSt11char_traitsIcESaIcEED1Ev(ptr noundef nonnull align 8 dereferenceable(32) %3) #20
  tail call void @_ZNSt7__cxx1112basic_stringIcSt11char_traitsIcESaIcEED1Ev(ptr noundef nonnull align 8 dereferenceable(32) %2) #20
  tail call void @_ZN21cmCTestGenericHandlerD2Ev(ptr noundef nonnull align 8 dereferenceable(284) %0) #20
  resume { ptr, i32 } %14
}